target datalayout = "e-m:e-p270:32:32-p271:32:32-p272:64:64-i64:64-i128:128-f80:128-n8:16:32:64-S128"
target triple = "x86_64-pc-linux-gnu"

%struct.NarrowPtrStruct = type { ptr, i32, i8 }
%class.State = type { [315 x i32], [315 x i16], i32, ptr, [2 x ptr] }

@_ZN14CompressedOops11_narrow_oopE = external global %struct.NarrowPtrStruct, align 8

; Function Attrs: mustprogress nounwind uwtable
define linkonce_odr hidden noundef ptr @_ZN14CompressedOops4baseEv() #1 comdat align 2 {
  %1 = load ptr, ptr @_ZN14CompressedOops11_narrow_oopE, align 8
  ret ptr %1
}

; Function Attrs: mustprogress nounwind uwtable
define hidden void @_ZN5State14_sub_Op_StoreNEPK4Node(ptr noundef nonnull align 8 dereferenceable(1920) %0, ptr noundef %1) #1 align 2 {
  %3 = alloca ptr, align 8
  %4 = alloca ptr, align 8
  %5 = alloca i32, align 4
  %6 = alloca i32, align 4
  %7 = alloca i32, align 4
  store ptr %0, ptr %3, align 8
  store ptr %1, ptr %4, align 8
  %8 = load ptr, ptr %3, align 8
  %9 = getelementptr inbounds %class.State, ptr %8, i32 0, i32 4
  %10 = getelementptr inbounds [2 x ptr], ptr %9, i64 0, i64 0
  %11 = load ptr, ptr %10, align 8
  %12 = icmp ne ptr %11, null
  br i1 %12, label %13, label %58

13:                                               ; preds = %2
  %14 = getelementptr inbounds %class.State, ptr %8, i32 0, i32 4
  %15 = getelementptr inbounds [2 x ptr], ptr %14, i64 0, i64 0
  %16 = load ptr, ptr %15, align 8
  %17 = getelementptr inbounds %class.State, ptr %16, i32 0, i32 1
  %18 = getelementptr inbounds [315 x i16], ptr %17, i64 0, i64 127
  %19 = load i16, ptr %18, align 2
  %20 = zext i16 %19 to i32
  %21 = and i32 %20, 1
  %22 = icmp ne i32 %21, 0
  br i1 %22, label %23, label %58

23:                                               ; preds = %13
  %24 = getelementptr inbounds %class.State, ptr %8, i32 0, i32 4
  %25 = getelementptr inbounds [2 x ptr], ptr %24, i64 0, i64 1
  %26 = load ptr, ptr %25, align 8
  %27 = icmp ne ptr %26, null
  br i1 %27, label %28, label %58

28:                                               ; preds = %23
  %29 = getelementptr inbounds %class.State, ptr %8, i32 0, i32 4
  %30 = getelementptr inbounds [2 x ptr], ptr %29, i64 0, i64 1
  %31 = load ptr, ptr %30, align 8
  %32 = getelementptr inbounds %class.State, ptr %31, i32 0, i32 1
  %33 = getelementptr inbounds [315 x i16], ptr %32, i64 0, i64 23
  %34 = load i16, ptr %33, align 2
  %35 = zext i16 %34 to i32
  %36 = and i32 %35, 1
  %37 = icmp ne i32 %36, 0
  br i1 %37, label %38, label %58

38:                                               ; preds = %28
  %39 = getelementptr inbounds %class.State, ptr %8, i32 0, i32 4
  %40 = getelementptr inbounds [2 x ptr], ptr %39, i64 0, i64 0
  %41 = load ptr, ptr %40, align 8
  %42 = getelementptr inbounds %class.State, ptr %41, i32 0, i32 0
  %43 = getelementptr inbounds [315 x i32], ptr %42, i64 0, i64 127
  %44 = load i32, ptr %43, align 4
  %45 = getelementptr inbounds %class.State, ptr %8, i32 0, i32 4
  %46 = getelementptr inbounds [2 x ptr], ptr %45, i64 0, i64 1
  %47 = load ptr, ptr %46, align 8
  %48 = getelementptr inbounds %class.State, ptr %47, i32 0, i32 0
  %49 = getelementptr inbounds [315 x i32], ptr %48, i64 0, i64 23
  %50 = load i32, ptr %49, align 4
  %51 = add i32 %44, %50
  %52 = add i32 %51, 150
  store i32 %52, ptr %5, align 4
  %53 = load i32, ptr %5, align 4
  %54 = getelementptr inbounds %class.State, ptr %8, i32 0, i32 0
  %55 = getelementptr inbounds [315 x i32], ptr %54, i64 0, i64 0
  store i32 %53, ptr %55, align 8
  %56 = getelementptr inbounds %class.State, ptr %8, i32 0, i32 1
  %57 = getelementptr inbounds [315 x i16], ptr %56, i64 0, i64 0
  store i16 1205, ptr %57, align 4
  br label %58

58:                                               ; preds = %38, %28, %23, %13, %2
  %59 = getelementptr inbounds %class.State, ptr %8, i32 0, i32 4
  %60 = getelementptr inbounds [2 x ptr], ptr %59, i64 0, i64 0
  %61 = load ptr, ptr %60, align 8
  %62 = icmp ne ptr %61, null
  br i1 %62, label %63, label %125

63:                                               ; preds = %58
  %64 = getelementptr inbounds %class.State, ptr %8, i32 0, i32 4
  %65 = getelementptr inbounds [2 x ptr], ptr %64, i64 0, i64 0
  %66 = load ptr, ptr %65, align 8
  %67 = getelementptr inbounds %class.State, ptr %66, i32 0, i32 1
  %68 = getelementptr inbounds [315 x i16], ptr %67, i64 0, i64 127
  %69 = load i16, ptr %68, align 2
  %70 = zext i16 %69 to i32
  %71 = and i32 %70, 1
  %72 = icmp ne i32 %71, 0
  br i1 %72, label %73, label %125

73:                                               ; preds = %63
  %74 = getelementptr inbounds %class.State, ptr %8, i32 0, i32 4
  %75 = getelementptr inbounds [2 x ptr], ptr %74, i64 0, i64 1
  %76 = load ptr, ptr %75, align 8
  %77 = icmp ne ptr %76, null
  br i1 %77, label %78, label %125

78:                                               ; preds = %73
  %79 = getelementptr inbounds %class.State, ptr %8, i32 0, i32 4
  %80 = getelementptr inbounds [2 x ptr], ptr %79, i64 0, i64 1
  %81 = load ptr, ptr %80, align 8
  %82 = getelementptr inbounds %class.State, ptr %81, i32 0, i32 1
  %83 = getelementptr inbounds [315 x i16], ptr %82, i64 0, i64 25
  %84 = load i16, ptr %83, align 2
  %85 = zext i16 %84 to i32
  %86 = and i32 %85, 1
  %87 = icmp ne i32 %86, 0
  br i1 %87, label %88, label %125

88:                                               ; preds = %78
  %89 = call noundef ptr @_ZN14CompressedOops4baseEv()
  %90 = icmp eq ptr %89, null
  br i1 %90, label %91, label %125

91:                                               ; preds = %88
  %92 = getelementptr inbounds %class.State, ptr %8, i32 0, i32 4
  %93 = getelementptr inbounds [2 x ptr], ptr %92, i64 0, i64 0
  %94 = load ptr, ptr %93, align 8
  %95 = getelementptr inbounds %class.State, ptr %94, i32 0, i32 0
  %96 = getelementptr inbounds [315 x i32], ptr %95, i64 0, i64 127
  %97 = load i32, ptr %96, align 4
  %98 = getelementptr inbounds %class.State, ptr %8, i32 0, i32 4
  %99 = getelementptr inbounds [2 x ptr], ptr %98, i64 0, i64 1
  %100 = load ptr, ptr %99, align 8
  %101 = getelementptr inbounds %class.State, ptr %100, i32 0, i32 0
  %102 = getelementptr inbounds [315 x i32], ptr %101, i64 0, i64 25
  %103 = load i32, ptr %102, align 4
  %104 = add i32 %97, %103
  %105 = add i32 %104, 125
  store i32 %105, ptr %6, align 4
  %106 = getelementptr inbounds %class.State, ptr %8, i32 0, i32 1
  %107 = getelementptr inbounds [315 x i16], ptr %106, i64 0, i64 0
  %108 = load i16, ptr %107, align 4
  %109 = zext i16 %108 to i32
  %110 = and i32 %109, 1
  %111 = icmp eq i32 %110, 0
  br i1 %111, label %118, label %112

112:                                              ; preds = %91
  %113 = getelementptr inbounds %class.State, ptr %8, i32 0, i32 0
  %114 = getelementptr inbounds [315 x i32], ptr %113, i64 0, i64 0
  %115 = load i32, ptr %114, align 8
  %116 = load i32, ptr %6, align 4
  %117 = icmp ugt i32 %115, %116
  br i1 %117, label %118, label %124

118:                                              ; preds = %112, %91
  %119 = load i32, ptr %6, align 4
  %120 = getelementptr inbounds %class.State, ptr %8, i32 0, i32 0
  %121 = getelementptr inbounds [315 x i32], ptr %120, i64 0, i64 0
  store i32 %119, ptr %121, align 8
  %122 = getelementptr inbounds %class.State, ptr %8, i32 0, i32 1
  %123 = getelementptr inbounds [315 x i16], ptr %122, i64 0, i64 0
  store i16 1203, ptr %123, align 4
  br label %124

124:                                              ; preds = %118, %112
  br label %125

125:                                              ; preds = %124, %88, %78, %73, %63, %58
  %126 = getelementptr inbounds %class.State, ptr %8, i32 0, i32 4
  %127 = getelementptr inbounds [2 x ptr], ptr %126, i64 0, i64 0
  %128 = load ptr, ptr %127, align 8
  %129 = icmp ne ptr %128, null
  br i1 %129, label %130, label %189

130:                                              ; preds = %125
  %131 = getelementptr inbounds %class.State, ptr %8, i32 0, i32 4
  %132 = getelementptr inbounds [2 x ptr], ptr %131, i64 0, i64 0
  %133 = load ptr, ptr %132, align 8
  %134 = getelementptr inbounds %class.State, ptr %133, i32 0, i32 1
  %135 = getelementptr inbounds [315 x i16], ptr %134, i64 0, i64 127
  %136 = load i16, ptr %135, align 2
  %137 = zext i16 %136 to i32
  %138 = and i32 %137, 1
  %139 = icmp ne i32 %138, 0
  br i1 %139, label %140, label %189

140:                                              ; preds = %130
  %141 = getelementptr inbounds %class.State, ptr %8, i32 0, i32 4
  %142 = getelementptr inbounds [2 x ptr], ptr %141, i64 0, i64 1
  %143 = load ptr, ptr %142, align 8
  %144 = icmp ne ptr %143, null
  br i1 %144, label %145, label %189

145:                                              ; preds = %140
  %146 = getelementptr inbounds %class.State, ptr %8, i32 0, i32 4
  %147 = getelementptr inbounds [2 x ptr], ptr %146, i64 0, i64 1
  %148 = load ptr, ptr %147, align 8
  %149 = getelementptr inbounds %class.State, ptr %148, i32 0, i32 1
  %150 = getelementptr inbounds [315 x i16], ptr %149, i64 0, i64 59
  %151 = load i16, ptr %150, align 2
  %152 = zext i16 %151 to i32
  %153 = and i32 %152, 1
  %154 = icmp ne i32 %153, 0
  br i1 %154, label %155, label %189

155:                                              ; preds = %145
  %156 = getelementptr inbounds %class.State, ptr %8, i32 0, i32 4
  %157 = getelementptr inbounds [2 x ptr], ptr %156, i64 0, i64 0
  %158 = load ptr, ptr %157, align 8
  %159 = getelementptr inbounds %class.State, ptr %158, i32 0, i32 0
  %160 = getelementptr inbounds [315 x i32], ptr %159, i64 0, i64 127
  %161 = load i32, ptr %160, align 4
  %162 = getelementptr inbounds %class.State, ptr %8, i32 0, i32 4
  %163 = getelementptr inbounds [2 x ptr], ptr %162, i64 0, i64 1
  %164 = load ptr, ptr %163, align 8
  %165 = getelementptr inbounds %class.State, ptr %164, i32 0, i32 0
  %166 = getelementptr inbounds [315 x i32], ptr %165, i64 0, i64 59
  %167 = load i32, ptr %166, align 4
  %168 = add i32 %161, %167
  %169 = add i32 %168, 125
  store i32 %169, ptr %7, align 4
  %170 = getelementptr inbounds %class.State, ptr %8, i32 0, i32 1
  %171 = getelementptr inbounds [315 x i16], ptr %170, i64 0, i64 0
  %172 = load i16, ptr %171, align 4
  %173 = zext i16 %172 to i32
  %174 = and i32 %173, 1
  %175 = icmp eq i32 %174, 0
  br i1 %175, label %182, label %176

176:                                              ; preds = %155
  %177 = getelementptr inbounds %class.State, ptr %8, i32 0, i32 0
  %178 = getelementptr inbounds [315 x i32], ptr %177, i64 0, i64 0
  %179 = load i32, ptr %178, align 8
  %180 = load i32, ptr %7, align 4
  %181 = icmp ugt i32 %179, %180
  br i1 %181, label %182, label %188

182:                                              ; preds = %176, %155
  %183 = load i32, ptr %7, align 4
  %184 = getelementptr inbounds %class.State, ptr %8, i32 0, i32 0
  %185 = getelementptr inbounds [315 x i32], ptr %184, i64 0, i64 0
  store i32 %183, ptr %185, align 8
  %186 = getelementptr inbounds %class.State, ptr %8, i32 0, i32 1
  %187 = getelementptr inbounds [315 x i16], ptr %186, i64 0, i64 0
  store i16 1199, ptr %187, align 4
  br label %188

188:                                              ; preds = %182, %176
  br label %189

189:                                              ; preds = %188, %145, %140, %130, %125
  ret void
}