; Function Attrs: mustprogress nofree norecurse nosync nounwind willreturn memory(read, argmem: readwrite, inaccessiblemem: none) uwtable
define hidden void @_ZN5State14_sub_Op_StoreNEPK4Node(ptr nocapture noundef nonnull align 8 dereferenceable(1920) %0, ptr nocapture readnone %1) local_unnamed_addr #1 align 2 {
  %3 = getelementptr inbounds i8, ptr %0, i64 1904
  %4 = load ptr, ptr %3, align 8
  %.not = icmp eq ptr %4, null
  br i1 %.not, label %.thread39, label %5

5:                                                ; preds = %2
  %6 = getelementptr inbounds i8, ptr %4, i64 1514
  %7 = load i16, ptr %6, align 2
  %8 = and i16 %7, 1
  %.not10 = icmp eq i16 %8, 0
  br i1 %.not10, label %.thread39, label %9

9:                                                ; preds = %5
  %10 = getelementptr inbounds i8, ptr %0, i64 1912
  %11 = load ptr, ptr %10, align 8
  %.not11 = icmp eq ptr %11, null
  br i1 %.not11, label %.thread, label %12

12:                                               ; preds = %9
  %13 = getelementptr inbounds i8, ptr %11, i64 1306
  %14 = load i16, ptr %13, align 2
  %15 = and i16 %14, 1
  %.not12 = icmp eq i16 %15, 0
  br i1 %.not12, label %.thread, label %16

16:                                               ; preds = %12
  %17 = getelementptr inbounds i8, ptr %4, i64 508
  %18 = load i32, ptr %17, align 4
  %19 = getelementptr inbounds i8, ptr %11, i64 92
  %20 = load i32, ptr %19, align 4
  %21 = add i32 %18, 150
  %22 = add i32 %21, %20
  store i32 %22, ptr %0, align 8
  %23 = getelementptr inbounds i8, ptr %0, i64 1260
  store i16 1205, ptr %23, align 4
  %.pre = load i16, ptr %6, align 2
  %.pre29 = and i16 %.pre, 1
  %24 = icmp eq i16 %.pre29, 0
  br i1 %24, label %.thread39, label %.thread

.thread:                                          ; preds = %9, %12, %16
  %25 = getelementptr inbounds i8, ptr %0, i64 1912
  %26 = load ptr, ptr %25, align 8
  %.not15 = icmp eq ptr %26, null
  br i1 %.not15, label %.thread36, label %27

27:                                               ; preds = %.thread
  %28 = getelementptr inbounds i8, ptr %26, i64 1310
  %29 = load i16, ptr %28, align 2
  %30 = and i16 %29, 1
  %.not16 = icmp ne i16 %30, 0
  %31 = load ptr, ptr @_ZN14CompressedOops11_narrow_oopE, align 8
  %32 = icmp eq ptr %31, null
  %or.cond27 = select i1 %.not16, i1 %32, i1 false
  br i1 %or.cond27, label %33, label %.thread36

33:                                               ; preds = %27
  %34 = getelementptr inbounds i8, ptr %4, i64 508
  %35 = load i32, ptr %34, align 4
  %36 = getelementptr inbounds i8, ptr %26, i64 100
  %37 = load i32, ptr %36, align 4
  %38 = add i32 %35, 125
  %39 = add i32 %38, %37
  %40 = getelementptr inbounds i8, ptr %0, i64 1260
  %41 = load i16, ptr %40, align 4
  %42 = and i16 %41, 1
  %43 = icmp eq i16 %42, 0
  %44 = load i32, ptr %0, align 8
  %45 = icmp ugt i32 %44, %39
  %or.cond = select i1 %43, i1 true, i1 %45
  br i1 %or.cond, label %46, label %.thread36

46:                                               ; preds = %33
  store i32 %39, ptr %0, align 8
  store i16 1203, ptr %40, align 4
  %.pre28 = load i16, ptr %6, align 2
  %.pre30 = and i16 %.pre28, 1
  %47 = icmp eq i16 %.pre30, 0
  br i1 %47, label %.thread39, label %.thread36

.thread36:                                        ; preds = %.thread, %27, %33, %46
  %48 = getelementptr inbounds i8, ptr %0, i64 1912
  %49 = load ptr, ptr %48, align 8
  %.not19 = icmp eq ptr %49, null
  br i1 %.not19, label %.thread39, label %50

50:                                               ; preds = %.thread36
  %51 = getelementptr inbounds i8, ptr %49, i64 1378
  %52 = load i16, ptr %51, align 2
  %53 = and i16 %52, 1
  %.not20 = icmp eq i16 %53, 0
  br i1 %.not20, label %.thread39, label %54

54:                                               ; preds = %50
  %55 = getelementptr inbounds i8, ptr %4, i64 508
  %56 = load i32, ptr %55, align 4
  %57 = getelementptr inbounds i8, ptr %49, i64 236
  %58 = load i32, ptr %57, align 4
  %59 = add i32 %56, 125
  %60 = add i32 %59, %58
  %61 = getelementptr inbounds i8, ptr %0, i64 1260
  %62 = load i16, ptr %61, align 4
  %63 = and i16 %62, 1
  %64 = icmp eq i16 %63, 0
  %65 = load i32, ptr %0, align 8
  %66 = icmp ugt i32 %65, %60
  %or.cond23 = select i1 %64, i1 true, i1 %66
  br i1 %or.cond23, label %67, label %.thread39

67:                                               ; preds = %54
  store i32 %60, ptr %0, align 8
  store i16 1199, ptr %61, align 4
  br label %.thread39

.thread39:                                        ; preds = %5, %16, %2, %54, %67, %50, %.thread36, %46
  ret void
}